target datalayout = "e-m:e-p270:32:32-p271:32:32-p272:64:64-i64:64-i128:128-f80:128-n8:16:32:64-S128"
target triple = "x86_64-pc-linux-gnu"

@num_buttons = internal global i32 0, align 4

; Function Attrs: nounwind uwtable
define i32 @Java_sun_awt_X11_XToolkit_getNumberOfButtonsImpl(ptr noundef %0, ptr noundef %1) #0 {
  %3 = alloca ptr, align 8
  %4 = alloca ptr, align 8
  store ptr %0, ptr %3, align 8
  store ptr %1, ptr %4, align 8
  %5 = load i32, ptr @num_buttons, align 4
  %6 = icmp eq i32 %5, 0
  br i1 %6, label %7, label %9

7:                                                ; preds = %2
  %8 = call i32 @getNumButtons()
  store i32 %8, ptr @num_buttons, align 4
  br label %9

9:                                                ; preds = %7, %2
  %10 = load i32, ptr @num_buttons, align 4
  ret i32 %10
}