; Function Attrs: nounwind uwtable
define range(i32 -32768, 32768) i32 @Java_sun_awt_X11_XToolkit_getNumberOfButtonsImpl(ptr nocapture noundef readnone %0, ptr nocapture noundef readnone %1) local_unnamed_addr #0 {
  %3 = load i32, ptr @num_buttons, align 4
  %4 = icmp eq i32 %3, 0
  br i1 %4, label %5, label %7

5:                                                ; preds = %2
  %6 = tail call i32 @getNumButtons()
  store i32 %6, ptr @num_buttons, align 4
  br label %7

7:                                                ; preds = %5, %2
  %8 = phi i32 [ %6, %5 ], [ %3, %2 ]
  ret i32 %8
}